target datalayout = "e-m:e-p270:32:32-p271:32:32-p272:64:64-i64:64-i128:128-f80:128-n8:16:32:64-S128"
target triple = "x86_64-pc-linux-gnu"

%struct.PageHeaderData = type { %struct.PageXLogRecPtr, i16, i16, i16, i16, i16, i16, i32, [0 x %struct.ItemIdData] }
%struct.PageXLogRecPtr = type { i32, i32 }
%struct.ItemIdData = type { i32 }

; Function Attrs: nounwind uwtable
define internal i32 @pg_checksum_block(ptr noundef %0) #0 {
  %2 = alloca ptr, align 8
  %3 = alloca [32 x i32], align 16
  %4 = alloca i32, align 4
  %5 = alloca i32, align 4
  %6 = alloca i32, align 4
  %7 = alloca i32, align 4
  %8 = alloca i32, align 4
  store ptr %0, ptr %2, align 8
  call void @llvm.lifetime.start.p0(i64 128, ptr %3) #7
  call void @llvm.lifetime.start.p0(i64 4, ptr %4) #7
  store i32 0, ptr %4, align 4
  call void @llvm.lifetime.start.p0(i64 4, ptr %5) #7
  call void @llvm.lifetime.start.p0(i64 4, ptr %6) #7
  %9 = getelementptr inbounds [32 x i32], ptr %3, i64 0, i64 0
  call void @llvm.memcpy.p0.p0.i64(ptr align 16 %9, ptr align 16 @checksumBaseOffsets, i64 128, i1 false)
  store i32 0, ptr %5, align 4
  br label %10

10:                                               ; preds = %46, %1
  %11 = load i32, ptr %5, align 4
  %12 = icmp ult i32 %11, 64
  br i1 %12, label %13, label %49

13:                                               ; preds = %10
  store i32 0, ptr %6, align 4
  br label %14

14:                                               ; preds = %42, %13
  %15 = load i32, ptr %6, align 4
  %16 = icmp ult i32 %15, 32
  br i1 %16, label %17, label %45

17:                                               ; preds = %14
  br label %18

18:                                               ; preds = %17
  call void @llvm.lifetime.start.p0(i64 4, ptr %7) #7
  %19 = load i32, ptr %6, align 4
  %20 = zext i32 %19 to i64
  %21 = getelementptr inbounds nuw [32 x i32], ptr %3, i64 0, i64 %20
  %22 = load i32, ptr %21, align 4
  %23 = load ptr, ptr %2, align 8
  %24 = load i32, ptr %5, align 4
  %25 = zext i32 %24 to i64
  %26 = getelementptr inbounds nuw [64 x [32 x i32]], ptr %23, i64 0, i64 %25
  %27 = load i32, ptr %6, align 4
  %28 = zext i32 %27 to i64
  %29 = getelementptr inbounds nuw [32 x i32], ptr %26, i64 0, i64 %28
  %30 = load i32, ptr %29, align 4
  %31 = xor i32 %22, %30
  store i32 %31, ptr %7, align 4
  %32 = load i32, ptr %7, align 4
  %33 = mul i32 %32, 16777619
  %34 = load i32, ptr %7, align 4
  %35 = lshr i32 %34, 17
  %36 = xor i32 %33, %35
  %37 = load i32, ptr %6, align 4
  %38 = zext i32 %37 to i64
  %39 = getelementptr inbounds nuw [32 x i32], ptr %3, i64 0, i64 %38
  store i32 %36, ptr %39, align 4
  call void @llvm.lifetime.end.p0(i64 4, ptr %7) #7
  br label %40

40:                                               ; preds = %18
  br label %41

41:                                               ; preds = %40
  br label %42

42:                                               ; preds = %41
  %43 = load i32, ptr %6, align 4
  %44 = add i32 %43, 1
  store i32 %44, ptr %6, align 4
  br label %14, !llvm.loop !4

45:                                               ; preds = %14
  br label %46

46:                                               ; preds = %45
  %47 = load i32, ptr %5, align 4
  %48 = add i32 %47, 1
  store i32 %48, ptr %5, align 4
  br label %10, !llvm.loop !6

49:                                               ; preds = %10
  store i32 0, ptr %5, align 4
  br label %50

50:                                               ; preds = %78, %49
  %51 = load i32, ptr %5, align 4
  %52 = icmp ult i32 %51, 2
  br i1 %52, label %53, label %81

53:                                               ; preds = %50
  store i32 0, ptr %6, align 4
  br label %54

54:                                               ; preds = %74, %53
  %55 = load i32, ptr %6, align 4
  %56 = icmp ult i32 %55, 32
  br i1 %56, label %57, label %77

57:                                               ; preds = %54
  br label %58

58:                                               ; preds = %57
  call void @llvm.lifetime.start.p0(i64 4, ptr %8) #7
  %59 = load i32, ptr %6, align 4
  %60 = zext i32 %59 to i64
  %61 = getelementptr inbounds nuw [32 x i32], ptr %3, i64 0, i64 %60
  %62 = load i32, ptr %61, align 4
  %63 = xor i32 %62, 0
  store i32 %63, ptr %8, align 4
  %64 = load i32, ptr %8, align 4
  %65 = mul i32 %64, 16777619
  %66 = load i32, ptr %8, align 4
  %67 = lshr i32 %66, 17
  %68 = xor i32 %65, %67
  %69 = load i32, ptr %6, align 4
  %70 = zext i32 %69 to i64
  %71 = getelementptr inbounds nuw [32 x i32], ptr %3, i64 0, i64 %70
  store i32 %68, ptr %71, align 4
  call void @llvm.lifetime.end.p0(i64 4, ptr %8) #7
  br label %72

72:                                               ; preds = %58
  br label %73

73:                                               ; preds = %72
  br label %74

74:                                               ; preds = %73
  %75 = load i32, ptr %6, align 4
  %76 = add i32 %75, 1
  store i32 %76, ptr %6, align 4
  br label %54, !llvm.loop !7

77:                                               ; preds = %54
  br label %78

78:                                               ; preds = %77
  %79 = load i32, ptr %5, align 4
  %80 = add i32 %79, 1
  store i32 %80, ptr %5, align 4
  br label %50, !llvm.loop !8

81:                                               ; preds = %50
  store i32 0, ptr %5, align 4
  br label %82

82:                                               ; preds = %92, %81
  %83 = load i32, ptr %5, align 4
  %84 = icmp ult i32 %83, 32
  br i1 %84, label %85, label %95

85:                                               ; preds = %82
  %86 = load i32, ptr %5, align 4
  %87 = zext i32 %86 to i64
  %88 = getelementptr inbounds nuw [32 x i32], ptr %3, i64 0, i64 %87
  %89 = load i32, ptr %88, align 4
  %90 = load i32, ptr %4, align 4
  %91 = xor i32 %90, %89
  store i32 %91, ptr %4, align 4
  br label %92

92:                                               ; preds = %85
  %93 = load i32, ptr %5, align 4
  %94 = add i32 %93, 1
  store i32 %94, ptr %5, align 4
  br label %82, !llvm.loop !9

95:                                               ; preds = %82
  %96 = load i32, ptr %4, align 4
  call void @llvm.lifetime.end.p0(i64 4, ptr %6) #7
  call void @llvm.lifetime.end.p0(i64 4, ptr %5) #7
  call void @llvm.lifetime.end.p0(i64 4, ptr %4) #7
  call void @llvm.lifetime.end.p0(i64 128, ptr %3) #7
  ret i32 %96
}

; Function Attrs: nounwind uwtable
define dso_local zeroext i16 @pg_checksum_page(ptr noundef %0, i32 noundef %1) #0 {
  %3 = alloca ptr, align 8
  %4 = alloca i32, align 4
  %5 = alloca ptr, align 8
  %6 = alloca i16, align 2
  %7 = alloca i32, align 4
  store ptr %0, ptr %3, align 8
  store i32 %1, ptr %4, align 4
  call void @llvm.lifetime.start.p0(i64 8, ptr %5) #7
  %8 = load ptr, ptr %3, align 8
  store ptr %8, ptr %5, align 8
  call void @llvm.lifetime.start.p0(i64 2, ptr %6) #7
  call void @llvm.lifetime.start.p0(i64 4, ptr %7) #7
  %9 = load ptr, ptr %5, align 8
  %10 = getelementptr inbounds nuw %struct.PageHeaderData, ptr %9, i32 0, i32 1
  %11 = load i16, ptr %10, align 4
  store i16 %11, ptr %6, align 2
  %12 = load ptr, ptr %5, align 8
  %13 = getelementptr inbounds nuw %struct.PageHeaderData, ptr %12, i32 0, i32 1
  store i16 0, ptr %13, align 4
  %14 = load ptr, ptr %5, align 8
  %15 = call i32 @pg_checksum_block(ptr noundef %14)
  store i32 %15, ptr %7, align 4
  %16 = load i16, ptr %6, align 2
  %17 = load ptr, ptr %5, align 8
  %18 = getelementptr inbounds nuw %struct.PageHeaderData, ptr %17, i32 0, i32 1
  store i16 %16, ptr %18, align 4
  %19 = load i32, ptr %4, align 4
  %20 = load i32, ptr %7, align 4
  %21 = xor i32 %20, %19
  store i32 %21, ptr %7, align 4
  %22 = load i32, ptr %7, align 4
  %23 = urem i32 %22, 65535
  %24 = add i32 %23, 1
  %25 = trunc i32 %24 to i16
  call void @llvm.lifetime.end.p0(i64 4, ptr %7) #7
  call void @llvm.lifetime.end.p0(i64 2, ptr %6) #7
  call void @llvm.lifetime.end.p0(i64 8, ptr %5) #7
  ret i16 %25
}