; Function Attrs: nofree norecurse nosync nounwind memory(argmem: readwrite) uwtable
define dso_local zeroext range(i16 1, 0) i16 @pg_checksum_page(ptr noundef captures(none) %0, i32 noundef %1) local_unnamed_addr #0 {
  %3 = alloca [32 x i32], align 16
  %4 = getelementptr inbounds nuw i8, ptr %0, i64 8
  %5 = load i16, ptr %4, align 4
  store i16 0, ptr %4, align 4
  call void @llvm.lifetime.start.p0(i64 128, ptr nonnull %3) #10
  call void @llvm.memcpy.p0.p0.i64(ptr noundef nonnull align 16 dereferenceable(128) %3, ptr noundef nonnull align 16 dereferenceable(128) @checksumBaseOffsets, i64 128, i1 false)
  br label %.preheader28.i

.preheader28.i:                                   ; preds = %15, %2
  %indvars.iv36.i = phi i64 [ 0, %2 ], [ %indvars.iv.next37.i, %15 ]
  br label %6

6:                                                ; preds = %6, %.preheader28.i
  %indvars.iv.i = phi i64 [ 0, %.preheader28.i ], [ %indvars.iv.next.i, %6 ]
  %7 = getelementptr inbounds nuw [32 x i32], ptr %3, i64 0, i64 %indvars.iv.i
  %8 = load i32, ptr %7, align 4
  %9 = getelementptr inbounds nuw [64 x [32 x i32]], ptr %0, i64 0, i64 %indvars.iv36.i, i64 %indvars.iv.i
  %10 = load i32, ptr %9, align 4
  %11 = xor i32 %10, %8
  %12 = mul i32 %11, 16777619
  %13 = lshr i32 %11, 17
  %14 = xor i32 %12, %13
  store i32 %14, ptr %7, align 4
  %indvars.iv.next.i = add nuw nsw i64 %indvars.iv.i, 1
  %exitcond.not.i = icmp eq i64 %indvars.iv.next.i, 32
  br i1 %exitcond.not.i, label %15, label %6, !llvm.loop !4

15:                                               ; preds = %6
  %indvars.iv.next37.i = add nuw nsw i64 %indvars.iv36.i, 1
  %exitcond39.not.i = icmp eq i64 %indvars.iv.next37.i, 64
  br i1 %exitcond39.not.i, label %.preheader26.i, label %.preheader28.i, !llvm.loop !6

.preheader26.i:                                   ; preds = %15, %23
  %16 = phi i1 [ false, %23 ], [ true, %15 ]
  br label %17

17:                                               ; preds = %17, %.preheader26.i
  %indvars.iv40.i = phi i64 [ 0, %.preheader26.i ], [ %indvars.iv.next41.i, %17 ]
  %18 = getelementptr inbounds nuw [32 x i32], ptr %3, i64 0, i64 %indvars.iv40.i
  %19 = load i32, ptr %18, align 4
  %20 = mul i32 %19, 16777619
  %21 = lshr i32 %19, 17
  %22 = xor i32 %20, %21
  store i32 %22, ptr %18, align 4
  %indvars.iv.next41.i = add nuw nsw i64 %indvars.iv40.i, 1
  %exitcond43.not.i = icmp eq i64 %indvars.iv.next41.i, 32
  br i1 %exitcond43.not.i, label %23, label %17, !llvm.loop !7

23:                                               ; preds = %17
  br i1 %16, label %.preheader26.i, label %.preheader.i, !llvm.loop !8

.preheader.i:                                     ; preds = %23, %.preheader.i
  %indvars.iv44.i = phi i64 [ %indvars.iv.next45.i, %.preheader.i ], [ 0, %23 ]
  %.034.i = phi i32 [ %26, %.preheader.i ], [ 0, %23 ]
  %24 = getelementptr inbounds nuw [32 x i32], ptr %3, i64 0, i64 %indvars.iv44.i
  %25 = load i32, ptr %24, align 4
  %26 = xor i32 %25, %.034.i
  %indvars.iv.next45.i = add nuw nsw i64 %indvars.iv44.i, 1
  %exitcond47.not.i = icmp eq i64 %indvars.iv.next45.i, 32
  br i1 %exitcond47.not.i, label %pg_checksum_block.exit, label %.preheader.i, !llvm.loop !9

pg_checksum_block.exit:                           ; preds = %.preheader.i
  call void @llvm.lifetime.end.p0(i64 128, ptr nonnull %3) #10
  store i16 %5, ptr %4, align 4
  %27 = xor i32 %26, %1
  %28 = urem i32 %27, 65535
  %29 = trunc nuw i32 %28 to i16
  %30 = add nuw i16 %29, 1
  ret i16 %30
}